target datalayout = "e-m:e-p270:32:32-p271:32:32-p272:64:64-i64:64-i128:128-f80:128-n8:16:32:64-S128"
target triple = "x86_64-pc-linux-gnu"

%"class.pxrInternal_v0_24__pxrReserved__::UsdShadeMaterialBindingAPI" = type { %"class.pxrInternal_v0_24__pxrReserved__::UsdAPISchemaBase" }
%"class.pxrInternal_v0_24__pxrReserved__::UsdAPISchemaBase" = type { %"class.pxrInternal_v0_24__pxrReserved__::UsdSchemaBase", %"class.pxrInternal_v0_24__pxrReserved__::TfToken" }
%"class.pxrInternal_v0_24__pxrReserved__::UsdSchemaBase" = type { ptr, %"class.pxrInternal_v0_24__pxrReserved__::Usd_PrimDataHandle", %"class.pxrInternal_v0_24__pxrReserved__::SdfPath" }
%"class.pxrInternal_v0_24__pxrReserved__::Usd_PrimDataHandle" = type { %"class.pxrInternal_v0_24__pxrReserved__::TfDelegatedCountPtr" }
%"class.pxrInternal_v0_24__pxrReserved__::TfDelegatedCountPtr" = type { ptr }
%"class.pxrInternal_v0_24__pxrReserved__::SdfPath" = type { %"struct.pxrInternal_v0_24__pxrReserved__::Sdf_PathNodeHandleImpl", %"struct.pxrInternal_v0_24__pxrReserved__::Sdf_PathNodeHandleImpl.0" }
%"struct.pxrInternal_v0_24__pxrReserved__::Sdf_PathNodeHandleImpl" = type { %"struct.pxrInternal_v0_24__pxrReserved__::Sdf_Pool<pxrInternal_v0_24__pxrReserved__::Sdf_PathPrimTag, 24, 8>::Handle" }
%"struct.pxrInternal_v0_24__pxrReserved__::Sdf_Pool<pxrInternal_v0_24__pxrReserved__::Sdf_PathPrimTag, 24, 8>::Handle" = type { i32 }
%"struct.pxrInternal_v0_24__pxrReserved__::Sdf_PathNodeHandleImpl.0" = type { %"struct.pxrInternal_v0_24__pxrReserved__::Sdf_Pool<pxrInternal_v0_24__pxrReserved__::Sdf_PathPropTag, 24, 8>::Handle" }
%"struct.pxrInternal_v0_24__pxrReserved__::Sdf_Pool<pxrInternal_v0_24__pxrReserved__::Sdf_PathPropTag, 24, 8>::Handle" = type { i32 }
%"class.pxrInternal_v0_24__pxrReserved__::TfToken" = type { %"class.pxrInternal_v0_24__pxrReserved__::TfPointerAndBits" }
%"class.pxrInternal_v0_24__pxrReserved__::TfPointerAndBits" = type { ptr }
%"class.pxrInternal_v0_24__pxrReserved__::UsdPrim" = type { %"class.pxrInternal_v0_24__pxrReserved__::UsdObject" }
%"class.pxrInternal_v0_24__pxrReserved__::UsdObject" = type { i32, %"class.pxrInternal_v0_24__pxrReserved__::Usd_PrimDataHandle", %"class.pxrInternal_v0_24__pxrReserved__::SdfPath", %"class.pxrInternal_v0_24__pxrReserved__::TfToken" }
%"class.pxrInternal_v0_24__pxrReserved__::UsdRelationship" = type { %"class.pxrInternal_v0_24__pxrReserved__::UsdProperty" }
%"class.pxrInternal_v0_24__pxrReserved__::UsdProperty" = type { %"class.pxrInternal_v0_24__pxrReserved__::UsdObject" }
%"class.pxrInternal_v0_24__pxrReserved__::UsdShadeMaterial" = type { %"class.pxrInternal_v0_24__pxrReserved__::UsdShadeNodeGraph" }
%"class.pxrInternal_v0_24__pxrReserved__::UsdShadeNodeGraph" = type { %"class.pxrInternal_v0_24__pxrReserved__::UsdTyped" }
%"class.pxrInternal_v0_24__pxrReserved__::UsdTyped" = type { %"class.pxrInternal_v0_24__pxrReserved__::UsdSchemaBase" }
%"struct.std::_Vector_base.81" = type { %"struct.std::_Vector_base<pxrInternal_v0_24__pxrReserved__::UsdRelationship, std::allocator<pxrInternal_v0_24__pxrReserved__::UsdRelationship>>::_Vector_impl" }
%"struct.std::_Vector_base<pxrInternal_v0_24__pxrReserved__::UsdRelationship, std::allocator<pxrInternal_v0_24__pxrReserved__::UsdRelationship>>::_Vector_impl" = type { %"struct.std::_Vector_base<pxrInternal_v0_24__pxrReserved__::UsdRelationship, std::allocator<pxrInternal_v0_24__pxrReserved__::UsdRelationship>>::_Vector_impl_data" }
%"struct.std::_Vector_base<pxrInternal_v0_24__pxrReserved__::UsdRelationship, std::allocator<pxrInternal_v0_24__pxrReserved__::UsdRelationship>>::_Vector_impl_data" = type { ptr, ptr, ptr }
%"struct.std::_Vector_base.192" = type { %"struct.std::_Vector_base<pxrInternal_v0_24__pxrReserved__::UsdShadeMaterial, std::allocator<pxrInternal_v0_24__pxrReserved__::UsdShadeMaterial>>::_Vector_impl" }
%"struct.std::_Vector_base<pxrInternal_v0_24__pxrReserved__::UsdShadeMaterial, std::allocator<pxrInternal_v0_24__pxrReserved__::UsdShadeMaterial>>::_Vector_impl" = type { %"struct.std::_Vector_base<pxrInternal_v0_24__pxrReserved__::UsdShadeMaterial, std::allocator<pxrInternal_v0_24__pxrReserved__::UsdShadeMaterial>>::_Vector_impl_data" }
%"struct.std::_Vector_base<pxrInternal_v0_24__pxrReserved__::UsdShadeMaterial, std::allocator<pxrInternal_v0_24__pxrReserved__::UsdShadeMaterial>>::_Vector_impl_data" = type { ptr, ptr, ptr }
%class.anon.201 = type { ptr, ptr, ptr, ptr, ptr, ptr, ptr }
%"struct.std::_Vector_base.197" = type { %"struct.std::_Vector_base<pxrInternal_v0_24__pxrReserved__::UsdPrim, std::allocator<pxrInternal_v0_24__pxrReserved__::UsdPrim>>::_Vector_impl" }
%"struct.std::_Vector_base<pxrInternal_v0_24__pxrReserved__::UsdPrim, std::allocator<pxrInternal_v0_24__pxrReserved__::UsdPrim>>::_Vector_impl" = type { %"struct.std::_Vector_base<pxrInternal_v0_24__pxrReserved__::UsdPrim, std::allocator<pxrInternal_v0_24__pxrReserved__::UsdPrim>>::_Vector_impl_data" }
%"struct.std::_Vector_base<pxrInternal_v0_24__pxrReserved__::UsdPrim, std::allocator<pxrInternal_v0_24__pxrReserved__::UsdPrim>>::_Vector_impl_data" = type { ptr, ptr, ptr }

@_ZTVN32pxrInternal_v0_24__pxrReserved__16UsdAPISchemaBaseE = external unnamed_addr constant { [8 x ptr] }, align 8
@_ZN32pxrInternal_v0_24__pxrReserved__26UsdShadeMaterialBindingAPID1Ev = unnamed_addr alias void (ptr), ptr @_ZN32pxrInternal_v0_24__pxrReserved__26UsdShadeMaterialBindingAPID2Ev

; Function Attrs: mustprogress nounwind uwtable
define linkonce_odr void @_ZN32pxrInternal_v0_24__pxrReserved__16TfPointerAndBitsIKNS_7TfToken4_RepEEC2Ev(ptr noundef nonnull align 8 dereferenceable(8) %0) unnamed_addr #2 comdat align 2 {
  %2 = alloca ptr, align 8
  store ptr %0, ptr %2, align 8
  %3 = load ptr, ptr %2, align 8
  %4 = getelementptr inbounds nuw %"class.pxrInternal_v0_24__pxrReserved__::TfPointerAndBits", ptr %3, i32 0, i32 0
  store ptr null, ptr %4, align 8
  ret void
}

; Function Attrs: mustprogress uwtable
define linkonce_odr noundef nonnull align 8 dereferenceable(24) ptr @_ZN32pxrInternal_v0_24__pxrReserved__8UsdTypedaSERKS0_(ptr noundef nonnull align 8 dereferenceable(24) %0, ptr noundef nonnull align 8 dereferenceable(24) %1) #0 comdat align 2 {
  %3 = alloca ptr, align 8
  %4 = alloca ptr, align 8
  store ptr %0, ptr %3, align 8
  store ptr %1, ptr %4, align 8
  %5 = load ptr, ptr %3, align 8
  %6 = load ptr, ptr %4, align 8
  %7 = call noundef nonnull align 8 dereferenceable(24) ptr @_ZN32pxrInternal_v0_24__pxrReserved__13UsdSchemaBaseaSERKS0_(ptr noundef nonnull align 8 dereferenceable(24) %5, ptr noundef nonnull align 8 dereferenceable(24) %6)
  ret ptr %5
}

; Function Attrs: mustprogress nounwind uwtable
define linkonce_odr void @_ZN32pxrInternal_v0_24__pxrReserved__7TfTokenC2Ev(ptr noundef nonnull align 8 dereferenceable(8) %0) unnamed_addr #2 comdat align 2 {
  %2 = alloca ptr, align 8
  store ptr %0, ptr %2, align 8
  %3 = load ptr, ptr %2, align 8
  %4 = getelementptr inbounds nuw %"class.pxrInternal_v0_24__pxrReserved__::TfToken", ptr %3, i32 0, i32 0
  call void @_ZN32pxrInternal_v0_24__pxrReserved__16TfPointerAndBitsIKNS_7TfToken4_RepEEC2Ev(ptr noundef nonnull align 8 dereferenceable(8) %4) #6
  ret void
}

; Function Attrs: mustprogress uwtable
define linkonce_odr noundef nonnull align 8 dereferenceable(24) ptr @_ZN32pxrInternal_v0_24__pxrReserved__17UsdShadeNodeGraphaSERKS0_(ptr noundef nonnull align 8 dereferenceable(24) %0, ptr noundef nonnull align 8 dereferenceable(24) %1) #0 comdat align 2 {
  %3 = alloca ptr, align 8
  %4 = alloca ptr, align 8
  store ptr %0, ptr %3, align 8
  store ptr %1, ptr %4, align 8
  %5 = load ptr, ptr %3, align 8
  %6 = load ptr, ptr %4, align 8
  %7 = call noundef nonnull align 8 dereferenceable(24) ptr @_ZN32pxrInternal_v0_24__pxrReserved__8UsdTypedaSERKS0_(ptr noundef nonnull align 8 dereferenceable(24) %5, ptr noundef nonnull align 8 dereferenceable(24) %6)
  ret ptr %5
}

; Function Attrs: mustprogress uwtable
define linkonce_odr void @_ZN32pxrInternal_v0_24__pxrReserved__16UsdAPISchemaBaseC2ERKNS_7UsdPrimE(ptr noundef nonnull align 8 dereferenceable(32) %0, ptr noundef nonnull align 8 dereferenceable(32) %1) unnamed_addr #0 comdat align 2 {
  %3 = alloca ptr, align 8
  %4 = alloca ptr, align 8
  store ptr %0, ptr %3, align 8
  store ptr %1, ptr %4, align 8
  %5 = load ptr, ptr %3, align 8
  %6 = load ptr, ptr %4, align 8
  call void @_ZN32pxrInternal_v0_24__pxrReserved__13UsdSchemaBaseC2ERKNS_7UsdPrimE(ptr noundef nonnull align 8 dereferenceable(24) %5, ptr noundef nonnull align 8 dereferenceable(32) %6)
  store ptr getelementptr inbounds inrange(-16, 48) ({ [8 x ptr] }, ptr @_ZTVN32pxrInternal_v0_24__pxrReserved__16UsdAPISchemaBaseE, i32 0, i32 0, i32 2), ptr %5, align 8
  %7 = getelementptr inbounds nuw %"class.pxrInternal_v0_24__pxrReserved__::UsdAPISchemaBase", ptr %5, i32 0, i32 1
  call void @_ZN32pxrInternal_v0_24__pxrReserved__7TfTokenC2Ev(ptr noundef nonnull align 8 dereferenceable(8) %7) #6
  ret void
}

; Function Attrs: mustprogress uwtable
define linkonce_odr noundef nonnull align 8 dereferenceable(24) ptr @_ZN32pxrInternal_v0_24__pxrReserved__16UsdShadeMaterialaSERKS0_(ptr noundef nonnull align 8 dereferenceable(24) %0, ptr noundef nonnull align 8 dereferenceable(24) %1) #0 comdat align 2 {
  %3 = alloca ptr, align 8
  %4 = alloca ptr, align 8
  store ptr %0, ptr %3, align 8
  store ptr %1, ptr %4, align 8
  %5 = load ptr, ptr %3, align 8
  %6 = load ptr, ptr %4, align 8
  %7 = call noundef nonnull align 8 dereferenceable(24) ptr @_ZN32pxrInternal_v0_24__pxrReserved__17UsdShadeNodeGraphaSERKS0_(ptr noundef nonnull align 8 dereferenceable(24) %5, ptr noundef nonnull align 8 dereferenceable(24) %6)
  ret ptr %5
}

; Function Attrs: mustprogress nounwind uwtable
define linkonce_odr noundef nonnull align 8 dereferenceable(24) ptr @_ZNSt6vectorIN32pxrInternal_v0_24__pxrReserved__16UsdShadeMaterialESaIS1_EEixEm(ptr noundef nonnull align 8 dereferenceable(24) %0, i64 noundef %1) #2 comdat align 2 {
  %3 = alloca ptr, align 8
  %4 = alloca i64, align 8
  store ptr %0, ptr %3, align 8
  store i64 %1, ptr %4, align 8
  %5 = load ptr, ptr %3, align 8
  %6 = getelementptr inbounds nuw %"struct.std::_Vector_base.192", ptr %5, i32 0, i32 0
  %7 = getelementptr inbounds nuw %"struct.std::_Vector_base<pxrInternal_v0_24__pxrReserved__::UsdShadeMaterial, std::allocator<pxrInternal_v0_24__pxrReserved__::UsdShadeMaterial>>::_Vector_impl_data", ptr %6, i32 0, i32 0
  %8 = load ptr, ptr %7, align 8
  %9 = load i64, ptr %4, align 8
  %10 = getelementptr inbounds %"class.pxrInternal_v0_24__pxrReserved__::UsdShadeMaterial", ptr %8, i64 %9
  ret ptr %10
}

; Function Attrs: mustprogress uwtable
define linkonce_odr void @_ZN32pxrInternal_v0_24__pxrReserved__26UsdShadeMaterialBindingAPIC2ERKNS_7UsdPrimE(ptr noundef nonnull align 8 dereferenceable(32) %0, ptr noundef nonnull align 8 dereferenceable(32) %1) unnamed_addr #0 comdat align 2 {
  %3 = alloca ptr, align 8
  %4 = alloca ptr, align 8
  store ptr %0, ptr %3, align 8
  store ptr %1, ptr %4, align 8
  %5 = load ptr, ptr %3, align 8
  %6 = load ptr, ptr %4, align 8
  call void @_ZN32pxrInternal_v0_24__pxrReserved__16UsdAPISchemaBaseC2ERKNS_7UsdPrimE(ptr noundef nonnull align 8 dereferenceable(32) %5, ptr noundef nonnull align 8 dereferenceable(32) %6)
  store ptr getelementptr inbounds inrange(-16, 48) ({ [8 x ptr] }, ptr @_ZTVN32pxrInternal_v0_24__pxrReserved__26UsdShadeMaterialBindingAPIE, i32 0, i32 0, i32 2), ptr %5, align 8
  ret void
}

; Function Attrs: mustprogress nounwind uwtable
define linkonce_odr noundef nonnull align 8 dereferenceable(32) ptr @_ZNSt6vectorIN32pxrInternal_v0_24__pxrReserved__15UsdRelationshipESaIS1_EEixEm(ptr noundef nonnull align 8 dereferenceable(24) %0, i64 noundef %1) #2 comdat align 2 {
  %3 = alloca ptr, align 8
  %4 = alloca i64, align 8
  store ptr %0, ptr %3, align 8
  store i64 %1, ptr %4, align 8
  %5 = load ptr, ptr %3, align 8
  %6 = getelementptr inbounds nuw %"struct.std::_Vector_base.81", ptr %5, i32 0, i32 0
  %7 = getelementptr inbounds nuw %"struct.std::_Vector_base<pxrInternal_v0_24__pxrReserved__::UsdRelationship, std::allocator<pxrInternal_v0_24__pxrReserved__::UsdRelationship>>::_Vector_impl_data", ptr %6, i32 0, i32 0
  %8 = load ptr, ptr %7, align 8
  %9 = load i64, ptr %4, align 8
  %10 = getelementptr inbounds %"class.pxrInternal_v0_24__pxrReserved__::UsdRelationship", ptr %8, i64 %9
  ret ptr %10
}

; Function Attrs: mustprogress nounwind uwtable
define linkonce_odr noundef nonnull align 8 dereferenceable(32) ptr @_ZNKSt6vectorIN32pxrInternal_v0_24__pxrReserved__7UsdPrimESaIS1_EEixEm(ptr noundef nonnull align 8 dereferenceable(24) %0, i64 noundef %1) #2 comdat align 2 {
  %3 = alloca ptr, align 8
  %4 = alloca i64, align 8
  store ptr %0, ptr %3, align 8
  store i64 %1, ptr %4, align 8
  %5 = load ptr, ptr %3, align 8
  %6 = getelementptr inbounds nuw %"struct.std::_Vector_base.197", ptr %5, i32 0, i32 0
  %7 = getelementptr inbounds nuw %"struct.std::_Vector_base<pxrInternal_v0_24__pxrReserved__::UsdPrim, std::allocator<pxrInternal_v0_24__pxrReserved__::UsdPrim>>::_Vector_impl_data", ptr %6, i32 0, i32 0
  %8 = load ptr, ptr %7, align 8
  %9 = load i64, ptr %4, align 8
  %10 = getelementptr inbounds %"class.pxrInternal_v0_24__pxrReserved__::UsdPrim", ptr %8, i64 %9
  ret ptr %10
}

; Function Attrs: mustprogress uwtable
define internal void @"_ZZN32pxrInternal_v0_24__pxrReserved__26UsdShadeMaterialBindingAPI21ComputeBoundMaterialsERKSt6vectorINS_7UsdPrimESaIS2_EERKNS_7TfTokenEPS1_INS_15UsdRelationshipESaISA_EEbENK3$_0clEmm"(ptr noundef nonnull align 8 dereferenceable(56) %0, i64 noundef %1, i64 noundef %2) #0 align 2 personality ptr @__gxx_personality_v0 {
  %4 = alloca ptr, align 8
  %5 = alloca i64, align 8
  %6 = alloca i64, align 8
  %7 = alloca i64, align 8
  %8 = alloca ptr, align 8
  %9 = alloca ptr, align 8
  %10 = alloca %"class.pxrInternal_v0_24__pxrReserved__::UsdShadeMaterial", align 8
  %11 = alloca %"class.pxrInternal_v0_24__pxrReserved__::UsdShadeMaterialBindingAPI", align 8
  %12 = alloca ptr, align 8
  %13 = alloca i32, align 4
  store ptr %0, ptr %4, align 8
  store i64 %1, ptr %5, align 8
  store i64 %2, ptr %6, align 8
  %14 = load ptr, ptr %4, align 8
  %15 = load i64, ptr %5, align 8
  store i64 %15, ptr %7, align 8
  br label %16

16:                                               ; preds = %57, %3
  %17 = load i64, ptr %7, align 8
  %18 = load i64, ptr %6, align 8
  %19 = icmp ult i64 %17, %18
  br i1 %19, label %20, label %69

20:                                               ; preds = %16
  %21 = getelementptr inbounds nuw %class.anon.201, ptr %14, i32 0, i32 0
  %22 = load ptr, ptr %21, align 8
  %23 = load i64, ptr %7, align 8
  %24 = call noundef nonnull align 8 dereferenceable(32) ptr @_ZNKSt6vectorIN32pxrInternal_v0_24__pxrReserved__7UsdPrimESaIS1_EEixEm(ptr noundef nonnull align 8 dereferenceable(24) %22, i64 noundef %23) #6
  store ptr %24, ptr %8, align 8
  %25 = getelementptr inbounds nuw %class.anon.201, ptr %14, i32 0, i32 1
  %26 = load ptr, ptr %25, align 8
  %27 = load ptr, ptr %26, align 8
  %28 = icmp ne ptr %27, null
  br i1 %28, label %29, label %35

29:                                               ; preds = %20
  %30 = getelementptr inbounds nuw %class.anon.201, ptr %14, i32 0, i32 1
  %31 = load ptr, ptr %30, align 8
  %32 = load ptr, ptr %31, align 8
  %33 = load i64, ptr %7, align 8
  %34 = call noundef nonnull align 8 dereferenceable(32) ptr @_ZNSt6vectorIN32pxrInternal_v0_24__pxrReserved__15UsdRelationshipESaIS1_EEixEm(ptr noundef nonnull align 8 dereferenceable(24) %32, i64 noundef %33) #6
  br label %36

35:                                               ; preds = %20
  br label %36

36:                                               ; preds = %35, %29
  %37 = phi ptr [ %34, %29 ], [ null, %35 ]
  store ptr %37, ptr %9, align 8
  %38 = load ptr, ptr %8, align 8
  call void @_ZN32pxrInternal_v0_24__pxrReserved__26UsdShadeMaterialBindingAPIC2ERKNS_7UsdPrimE(ptr noundef nonnull align 8 dereferenceable(32) %11, ptr noundef nonnull align 8 dereferenceable(32) %38)
  %39 = getelementptr inbounds nuw %class.anon.201, ptr %14, i32 0, i32 3
  %40 = load ptr, ptr %39, align 8
  %41 = getelementptr inbounds nuw %class.anon.201, ptr %14, i32 0, i32 4
  %42 = load ptr, ptr %41, align 8
  %43 = getelementptr inbounds nuw %class.anon.201, ptr %14, i32 0, i32 5
  %44 = load ptr, ptr %43, align 8
  %45 = load ptr, ptr %9, align 8
  %46 = getelementptr inbounds nuw %class.anon.201, ptr %14, i32 0, i32 6
  %47 = load ptr, ptr %46, align 8
  %48 = load i8, ptr %47, align 1
  %49 = trunc i8 %48 to i1
  invoke void @_ZNK32pxrInternal_v0_24__pxrReserved__26UsdShadeMaterialBindingAPI20ComputeBoundMaterialEPN3tbb6detail2d124concurrent_unordered_mapINS_7SdfPathESt10unique_ptrINS0_14BindingsAtPrimESt14default_deleteIS7_EENS5_4HashESt8equal_toIS5_ENS3_13tbb_allocatorISt4pairIKS5_SA_EEEEEPNS4_IS5_S6_INS_29Usd_CollectionMembershipQueryINS_38UsdObjectCollectionExpressionEvaluatorEEES8_ISN_EESB_SD_NSE_ISF_ISG_SP_EEEEERKNS_7TfTokenEPNS_15UsdRelationshipEb(ptr dead_on_unwind writable sret(%"class.pxrInternal_v0_24__pxrReserved__::UsdShadeMaterial") align 8 %10, ptr noundef nonnull align 8 dereferenceable(32) %11, ptr noundef %40, ptr noundef %42, ptr noundef nonnull align 8 dereferenceable(8) %44, ptr noundef %45, i1 noundef zeroext %49)
          to label %50 unwind label %60

50:                                               ; preds = %36
  %51 = getelementptr inbounds nuw %class.anon.201, ptr %14, i32 0, i32 2
  %52 = load ptr, ptr %51, align 8
  %53 = load i64, ptr %7, align 8
  %54 = call noundef nonnull align 8 dereferenceable(24) ptr @_ZNSt6vectorIN32pxrInternal_v0_24__pxrReserved__16UsdShadeMaterialESaIS1_EEixEm(ptr noundef nonnull align 8 dereferenceable(24) %52, i64 noundef %53) #6
  %55 = invoke noundef nonnull align 8 dereferenceable(24) ptr @_ZN32pxrInternal_v0_24__pxrReserved__16UsdShadeMaterialaSERKS0_(ptr noundef nonnull align 8 dereferenceable(24) %54, ptr noundef nonnull align 8 dereferenceable(24) %10)
          to label %56 unwind label %64

56:                                               ; preds = %50
  call void @_ZN32pxrInternal_v0_24__pxrReserved__16UsdShadeMaterialD1Ev(ptr noundef nonnull align 8 dereferenceable(24) %10) #6
  call void @_ZN32pxrInternal_v0_24__pxrReserved__26UsdShadeMaterialBindingAPID1Ev(ptr noundef nonnull align 8 dereferenceable(32) %11) #6
  br label %57

57:                                               ; preds = %56
  %58 = load i64, ptr %7, align 8
  %59 = add i64 %58, 1
  store i64 %59, ptr %7, align 8
  br label %16, !llvm.loop !61

60:                                               ; preds = %36
  %61 = landingpad { ptr, i32 }
          cleanup
  %62 = extractvalue { ptr, i32 } %61, 0
  store ptr %62, ptr %12, align 8
  %63 = extractvalue { ptr, i32 } %61, 1
  store i32 %63, ptr %13, align 4
  br label %68

64:                                               ; preds = %50
  %65 = landingpad { ptr, i32 }
          cleanup
  %66 = extractvalue { ptr, i32 } %65, 0
  store ptr %66, ptr %12, align 8
  %67 = extractvalue { ptr, i32 } %65, 1
  store i32 %67, ptr %13, align 4
  call void @_ZN32pxrInternal_v0_24__pxrReserved__16UsdShadeMaterialD1Ev(ptr noundef nonnull align 8 dereferenceable(24) %10) #6
  br label %68

68:                                               ; preds = %64, %60
  call void @_ZN32pxrInternal_v0_24__pxrReserved__26UsdShadeMaterialBindingAPID1Ev(ptr noundef nonnull align 8 dereferenceable(32) %11) #6
  br label %70

69:                                               ; preds = %16
  ret void

70:                                               ; preds = %68
  %71 = load ptr, ptr %12, align 8
  %72 = load i32, ptr %13, align 4
  %73 = insertvalue { ptr, i32 } poison, ptr %71, 0
  %74 = insertvalue { ptr, i32 } %73, i32 %72, 1
  resume { ptr, i32 } %74
}