; Function Attrs: mustprogress uwtable
define internal fastcc void @"_ZZN32pxrInternal_v0_24__pxrReserved__26UsdShadeMaterialBindingAPI21ComputeBoundMaterialsERKSt6vectorINS_7UsdPrimESaIS2_EERKNS_7TfTokenEPS1_INS_15UsdRelationshipESaISA_EEbENK3$_0clEmm"(ptr nocapture noundef nonnull readonly align 8 dereferenceable(56) %0, i64 noundef %1, i64 noundef %2) unnamed_addr #0 align 2 personality ptr @__gxx_personality_v0 {
  %4 = alloca %"class.pxrInternal_v0_24__pxrReserved__::UsdShadeMaterial", align 8
  %5 = alloca %"class.pxrInternal_v0_24__pxrReserved__::UsdShadeMaterialBindingAPI", align 8
  %6 = icmp ult i64 %1, %2
  br i1 %6, label %.lr.ph, label %._crit_edge

.lr.ph:                                           ; preds = %3
  %7 = getelementptr inbounds nuw i8, ptr %0, i64 8
  %8 = getelementptr inbounds nuw i8, ptr %5, i64 24
  %9 = getelementptr inbounds nuw i8, ptr %0, i64 24
  %10 = getelementptr inbounds nuw i8, ptr %0, i64 32
  %11 = getelementptr inbounds nuw i8, ptr %0, i64 40
  %12 = getelementptr inbounds nuw i8, ptr %0, i64 48
  %13 = getelementptr inbounds nuw i8, ptr %0, i64 16
  br label %14

14:                                               ; preds = %.lr.ph, %_ZN32pxrInternal_v0_24__pxrReserved__16UsdShadeMaterialaSERKS0_.exit
  %.01215 = phi i64 [ %1, %.lr.ph ], [ %36, %_ZN32pxrInternal_v0_24__pxrReserved__16UsdShadeMaterialaSERKS0_.exit ]
  %15 = load ptr, ptr %0, align 8
  %16 = load ptr, ptr %15, align 8
  %17 = getelementptr inbounds %"class.pxrInternal_v0_24__pxrReserved__::UsdPrim", ptr %16, i64 %.01215
  %18 = load ptr, ptr %7, align 8
  %19 = load ptr, ptr %18, align 8
  %.not = icmp eq ptr %19, null
  br i1 %.not, label %23, label %20

20:                                               ; preds = %14
  %21 = load ptr, ptr %19, align 8
  %22 = getelementptr inbounds %"class.pxrInternal_v0_24__pxrReserved__::UsdRelationship", ptr %21, i64 %.01215
  br label %23

23:                                               ; preds = %14, %20
  %24 = phi ptr [ %22, %20 ], [ null, %14 ]
  call void @_ZN32pxrInternal_v0_24__pxrReserved__13UsdSchemaBaseC2ERKNS_7UsdPrimE(ptr noundef nonnull align 8 dereferenceable(24) %5, ptr noundef nonnull align 8 dereferenceable(32) %17)
  store ptr null, ptr %8, align 8
  store ptr getelementptr inbounds inrange(-16, 48) (i8, ptr @_ZTVN32pxrInternal_v0_24__pxrReserved__26UsdShadeMaterialBindingAPIE, i64 16), ptr %5, align 8
  %25 = load ptr, ptr %9, align 8
  %26 = load ptr, ptr %10, align 8
  %27 = load ptr, ptr %11, align 8
  %28 = load ptr, ptr %12, align 8
  %29 = load i8, ptr %28, align 1
  %30 = trunc i8 %29 to i1
  invoke void @_ZNK32pxrInternal_v0_24__pxrReserved__26UsdShadeMaterialBindingAPI20ComputeBoundMaterialEPN3tbb6detail2d124concurrent_unordered_mapINS_7SdfPathESt10unique_ptrINS0_14BindingsAtPrimESt14default_deleteIS7_EENS5_4HashESt8equal_toIS5_ENS3_13tbb_allocatorISt4pairIKS5_SA_EEEEEPNS4_IS5_S6_INS_29Usd_CollectionMembershipQueryINS_38UsdObjectCollectionExpressionEvaluatorEEES8_ISN_EESB_SD_NSE_ISF_ISG_SP_EEEEERKNS_7TfTokenEPNS_15UsdRelationshipEb(ptr dead_on_unwind nonnull writable sret(%"class.pxrInternal_v0_24__pxrReserved__::UsdShadeMaterial") align 8 %4, ptr noundef nonnull align 8 dereferenceable(32) %5, ptr noundef %25, ptr noundef %26, ptr noundef nonnull align 8 dereferenceable(8) %27, ptr noundef %24, i1 noundef zeroext %30)
          to label %31 unwind label %37

31:                                               ; preds = %23
  %32 = load ptr, ptr %13, align 8
  %33 = load ptr, ptr %32, align 8
  %34 = getelementptr inbounds %"class.pxrInternal_v0_24__pxrReserved__::UsdShadeMaterial", ptr %33, i64 %.01215
  %35 = invoke noundef nonnull align 8 dereferenceable(24) ptr @_ZN32pxrInternal_v0_24__pxrReserved__13UsdSchemaBaseaSERKS0_(ptr noundef nonnull align 8 dereferenceable(24) %34, ptr noundef nonnull align 8 dereferenceable(24) %4)
          to label %_ZN32pxrInternal_v0_24__pxrReserved__16UsdShadeMaterialaSERKS0_.exit unwind label %39

_ZN32pxrInternal_v0_24__pxrReserved__16UsdShadeMaterialaSERKS0_.exit: ; preds = %31
  call void @_ZN32pxrInternal_v0_24__pxrReserved__16UsdShadeMaterialD1Ev(ptr noundef nonnull align 8 dereferenceable(24) %4) #21
  call void @_ZN32pxrInternal_v0_24__pxrReserved__26UsdShadeMaterialBindingAPID1Ev(ptr noundef nonnull align 8 dereferenceable(32) %5) #21
  %36 = add i64 %.01215, 1
  %exitcond.not = icmp eq i64 %36, %2
  br i1 %exitcond.not, label %._crit_edge, label %14, !llvm.loop !179

37:                                               ; preds = %23
  %38 = landingpad { ptr, i32 }
          cleanup
  br label %41

39:                                               ; preds = %31
  %40 = landingpad { ptr, i32 }
          cleanup
  call void @_ZN32pxrInternal_v0_24__pxrReserved__16UsdShadeMaterialD1Ev(ptr noundef nonnull align 8 dereferenceable(24) %4) #21
  br label %41

41:                                               ; preds = %39, %37
  %.pn = phi { ptr, i32 } [ %40, %39 ], [ %38, %37 ]
  call void @_ZN32pxrInternal_v0_24__pxrReserved__26UsdShadeMaterialBindingAPID1Ev(ptr noundef nonnull align 8 dereferenceable(32) %5) #21
  resume { ptr, i32 } %.pn

._crit_edge:                                      ; preds = %_ZN32pxrInternal_v0_24__pxrReserved__16UsdShadeMaterialaSERKS0_.exit, %3
  ret void
}